target datalayout = "e-m:e-p270:32:32-p271:32:32-p272:64:64-i64:64-i128:128-f80:128-n8:16:32:64-S128"
target triple = "x86_64-pc-linux-gnu"

%struct.cJSON = type { ptr, ptr, ptr, i32, ptr, i32, double, ptr }

; Function Attrs: nounwind sspstrong uwtable
define ptr @cJSON_DetachItemViaPointer(ptr noundef %0, ptr noundef %1) #0 {
  %3 = alloca ptr, align 8
  %4 = alloca ptr, align 8
  %5 = alloca ptr, align 8
  store ptr %0, ptr %4, align 8, !tbaa !11
  store ptr %1, ptr %5, align 8, !tbaa !11
  %6 = load ptr, ptr %4, align 8, !tbaa !11
  %7 = icmp eq ptr %6, null
  br i1 %7, label %22, label %8

8:                                                ; preds = %2
  %9 = load ptr, ptr %5, align 8, !tbaa !11
  %10 = icmp eq ptr %9, null
  br i1 %10, label %22, label %11

11:                                               ; preds = %8
  %12 = load ptr, ptr %5, align 8, !tbaa !11
  %13 = load ptr, ptr %4, align 8, !tbaa !11
  %14 = getelementptr inbounds nuw %struct.cJSON, ptr %13, i32 0, i32 2
  %15 = load ptr, ptr %14, align 8, !tbaa !29
  %16 = icmp ne ptr %12, %15
  br i1 %16, label %17, label %23

17:                                               ; preds = %11
  %18 = load ptr, ptr %5, align 8, !tbaa !11
  %19 = getelementptr inbounds nuw %struct.cJSON, ptr %18, i32 0, i32 1
  %20 = load ptr, ptr %19, align 8, !tbaa !54
  %21 = icmp eq ptr %20, null
  br i1 %21, label %22, label %23

22:                                               ; preds = %17, %8, %2
  store ptr null, ptr %3, align 8
  br label %82

23:                                               ; preds = %17, %11
  %24 = load ptr, ptr %5, align 8, !tbaa !11
  %25 = load ptr, ptr %4, align 8, !tbaa !11
  %26 = getelementptr inbounds nuw %struct.cJSON, ptr %25, i32 0, i32 2
  %27 = load ptr, ptr %26, align 8, !tbaa !29
  %28 = icmp ne ptr %24, %27
  br i1 %28, label %29, label %37

29:                                               ; preds = %23
  %30 = load ptr, ptr %5, align 8, !tbaa !11
  %31 = getelementptr inbounds nuw %struct.cJSON, ptr %30, i32 0, i32 0
  %32 = load ptr, ptr %31, align 8, !tbaa !28
  %33 = load ptr, ptr %5, align 8, !tbaa !11
  %34 = getelementptr inbounds nuw %struct.cJSON, ptr %33, i32 0, i32 1
  %35 = load ptr, ptr %34, align 8, !tbaa !54
  %36 = getelementptr inbounds nuw %struct.cJSON, ptr %35, i32 0, i32 0
  store ptr %32, ptr %36, align 8, !tbaa !28
  br label %37

37:                                               ; preds = %29, %23
  %38 = load ptr, ptr %5, align 8, !tbaa !11
  %39 = getelementptr inbounds nuw %struct.cJSON, ptr %38, i32 0, i32 0
  %40 = load ptr, ptr %39, align 8, !tbaa !28
  %41 = icmp ne ptr %40, null
  br i1 %41, label %42, label %50

42:                                               ; preds = %37
  %43 = load ptr, ptr %5, align 8, !tbaa !11
  %44 = getelementptr inbounds nuw %struct.cJSON, ptr %43, i32 0, i32 1
  %45 = load ptr, ptr %44, align 8, !tbaa !54
  %46 = load ptr, ptr %5, align 8, !tbaa !11
  %47 = getelementptr inbounds nuw %struct.cJSON, ptr %46, i32 0, i32 0
  %48 = load ptr, ptr %47, align 8, !tbaa !28
  %49 = getelementptr inbounds nuw %struct.cJSON, ptr %48, i32 0, i32 1
  store ptr %45, ptr %49, align 8, !tbaa !54
  br label %50

50:                                               ; preds = %42, %37
  %51 = load ptr, ptr %5, align 8, !tbaa !11
  %52 = load ptr, ptr %4, align 8, !tbaa !11
  %53 = getelementptr inbounds nuw %struct.cJSON, ptr %52, i32 0, i32 2
  %54 = load ptr, ptr %53, align 8, !tbaa !29
  %55 = icmp eq ptr %51, %54
  br i1 %55, label %56, label %62

56:                                               ; preds = %50
  %57 = load ptr, ptr %5, align 8, !tbaa !11
  %58 = getelementptr inbounds nuw %struct.cJSON, ptr %57, i32 0, i32 0
  %59 = load ptr, ptr %58, align 8, !tbaa !28
  %60 = load ptr, ptr %4, align 8, !tbaa !11
  %61 = getelementptr inbounds nuw %struct.cJSON, ptr %60, i32 0, i32 2
  store ptr %59, ptr %61, align 8, !tbaa !29
  br label %76

62:                                               ; preds = %50
  %63 = load ptr, ptr %5, align 8, !tbaa !11
  %64 = getelementptr inbounds nuw %struct.cJSON, ptr %63, i32 0, i32 0
  %65 = load ptr, ptr %64, align 8, !tbaa !28
  %66 = icmp eq ptr %65, null
  br i1 %66, label %67, label %75

67:                                               ; preds = %62
  %68 = load ptr, ptr %5, align 8, !tbaa !11
  %69 = getelementptr inbounds nuw %struct.cJSON, ptr %68, i32 0, i32 1
  %70 = load ptr, ptr %69, align 8, !tbaa !54
  %71 = load ptr, ptr %4, align 8, !tbaa !11
  %72 = getelementptr inbounds nuw %struct.cJSON, ptr %71, i32 0, i32 2
  %73 = load ptr, ptr %72, align 8, !tbaa !29
  %74 = getelementptr inbounds nuw %struct.cJSON, ptr %73, i32 0, i32 1
  store ptr %70, ptr %74, align 8, !tbaa !54
  br label %75

75:                                               ; preds = %67, %62
  br label %76

76:                                               ; preds = %75, %56
  %77 = load ptr, ptr %5, align 8, !tbaa !11
  %78 = getelementptr inbounds nuw %struct.cJSON, ptr %77, i32 0, i32 1
  store ptr null, ptr %78, align 8, !tbaa !54
  %79 = load ptr, ptr %5, align 8, !tbaa !11
  %80 = getelementptr inbounds nuw %struct.cJSON, ptr %79, i32 0, i32 0
  store ptr null, ptr %80, align 8, !tbaa !28
  %81 = load ptr, ptr %5, align 8, !tbaa !11
  store ptr %81, ptr %3, align 8
  br label %82

82:                                               ; preds = %76, %22
  %83 = load ptr, ptr %3, align 8
  ret ptr %83
}

; Function Attrs: nounwind sspstrong uwtable
define internal ptr @get_array_item(ptr noundef %0, i64 noundef %1) #0 {
  %3 = alloca ptr, align 8
  %4 = alloca ptr, align 8
  %5 = alloca i64, align 8
  %6 = alloca ptr, align 8
  %7 = alloca i32, align 4
  store ptr %0, ptr %4, align 8, !tbaa !11
  store i64 %1, ptr %5, align 8, !tbaa !34
  call void @llvm.lifetime.start.p0(i64 8, ptr %6) #10
  store ptr null, ptr %6, align 8, !tbaa !11
  %8 = load ptr, ptr %4, align 8, !tbaa !11
  %9 = icmp eq ptr %8, null
  br i1 %9, label %10, label %11

10:                                               ; preds = %2
  store ptr null, ptr %3, align 8
  store i32 1, ptr %7, align 4
  br label %31

11:                                               ; preds = %2
  %12 = load ptr, ptr %4, align 8, !tbaa !11
  %13 = getelementptr inbounds nuw %struct.cJSON, ptr %12, i32 0, i32 2
  %14 = load ptr, ptr %13, align 8, !tbaa !29
  store ptr %14, ptr %6, align 8, !tbaa !11
  br label %15

15:                                               ; preds = %23, %11
  %16 = load ptr, ptr %6, align 8, !tbaa !11
  %17 = icmp ne ptr %16, null
  br i1 %17, label %18, label %21

18:                                               ; preds = %15
  %19 = load i64, ptr %5, align 8, !tbaa !34
  %20 = icmp ugt i64 %19, 0
  br label %21

21:                                               ; preds = %18, %15
  %22 = phi i1 [ false, %15 ], [ %20, %18 ]
  br i1 %22, label %23, label %29

23:                                               ; preds = %21
  %24 = load i64, ptr %5, align 8, !tbaa !34
  %25 = add i64 %24, -1
  store i64 %25, ptr %5, align 8, !tbaa !34
  %26 = load ptr, ptr %6, align 8, !tbaa !11
  %27 = getelementptr inbounds nuw %struct.cJSON, ptr %26, i32 0, i32 0
  %28 = load ptr, ptr %27, align 8, !tbaa !28
  store ptr %28, ptr %6, align 8, !tbaa !11
  br label %15

29:                                               ; preds = %21
  %30 = load ptr, ptr %6, align 8, !tbaa !11
  store ptr %30, ptr %3, align 8
  store i32 1, ptr %7, align 4
  br label %31

31:                                               ; preds = %29, %10
  call void @llvm.lifetime.end.p0(i64 8, ptr %6) #10
  %32 = load ptr, ptr %3, align 8
  ret ptr %32
}

; Function Attrs: nounwind sspstrong uwtable
define ptr @cJSON_DetachItemFromArray(ptr noundef %0, i32 noundef %1) #0 {
  %3 = alloca ptr, align 8
  %4 = alloca ptr, align 8
  %5 = alloca i32, align 4
  store ptr %0, ptr %4, align 8, !tbaa !11
  store i32 %1, ptr %5, align 4, !tbaa !40
  %6 = load i32, ptr %5, align 4, !tbaa !40
  %7 = icmp slt i32 %6, 0
  br i1 %7, label %8, label %9

8:                                                ; preds = %2
  store ptr null, ptr %3, align 8
  br label %16

9:                                                ; preds = %2
  %10 = load ptr, ptr %4, align 8, !tbaa !11
  %11 = load ptr, ptr %4, align 8, !tbaa !11
  %12 = load i32, ptr %5, align 4, !tbaa !40
  %13 = sext i32 %12 to i64
  %14 = call ptr @get_array_item(ptr noundef %11, i64 noundef %13)
  %15 = call ptr @cJSON_DetachItemViaPointer(ptr noundef %10, ptr noundef %14)
  store ptr %15, ptr %3, align 8
  br label %16

16:                                               ; preds = %9, %8
  %17 = load ptr, ptr %3, align 8
  ret ptr %17
}