; Function Attrs: nofree norecurse nosync nounwind sspstrong memory(readwrite, inaccessiblemem: none) uwtable
define ptr @cJSON_DetachItemFromArray(ptr noundef %0, i32 noundef %1) local_unnamed_addr #21 {
  %3 = icmp slt i32 %1, 0
  %4 = icmp eq ptr %0, null
  %or.cond = or i1 %4, %3
  br i1 %or.cond, label %cJSON_DetachItemViaPointer.exit, label %5

5:                                                ; preds = %2
  %6 = zext nneg i32 %1 to i64
  %7 = getelementptr inbounds nuw i8, ptr %0, i64 16
  br label %8

8:                                                ; preds = %8, %5
  %.07.i = phi i64 [ %6, %5 ], [ %12, %8 ]
  %.0.in.i = phi ptr [ %7, %5 ], [ %.0.i, %8 ]
  %.0.i = load ptr, ptr %.0.in.i, align 8, !tbaa !53
  %9 = icmp ne ptr %.0.i, null
  %10 = icmp ne i64 %.07.i, 0
  %11 = select i1 %9, i1 %10, i1 false
  %12 = add nsw i64 %.07.i, -1
  br i1 %11, label %8, label %get_array_item.exit

get_array_item.exit:                              ; preds = %8
  %13 = icmp eq ptr %.0.i, null
  br i1 %13, label %cJSON_DetachItemViaPointer.exit, label %14

14:                                               ; preds = %get_array_item.exit
  %15 = load ptr, ptr %7, align 8, !tbaa !25
  %.not.i = icmp eq ptr %.0.i, %15
  br i1 %.not.i, label %.thread.i, label %16

16:                                               ; preds = %14
  %17 = getelementptr inbounds nuw i8, ptr %.0.i, i64 8
  %18 = load ptr, ptr %17, align 8, !tbaa !40
  %19 = icmp eq ptr %18, null
  br i1 %19, label %cJSON_DetachItemViaPointer.exit, label %.thread.thread.i

.thread.i:                                        ; preds = %14
  %20 = load ptr, ptr %.0.i, align 8, !tbaa !24
  %.not29.i = icmp eq ptr %20, null
  br i1 %.not29.i, label %26, label %.thread30.i

.thread.thread.i:                                 ; preds = %16
  %21 = load ptr, ptr %.0.i, align 8, !tbaa !24
  store ptr %21, ptr %18, align 8, !tbaa !24
  %.not2932.i = icmp eq ptr %21, null
  br i1 %.not2932.i, label %27, label %.thread31.i

.thread30.i:                                      ; preds = %.thread.i
  %22 = getelementptr inbounds nuw i8, ptr %.0.i, i64 8
  %23 = load ptr, ptr %22, align 8, !tbaa !40
  %24 = getelementptr inbounds nuw i8, ptr %20, i64 8
  store ptr %23, ptr %24, align 8, !tbaa !40
  br label %26

.thread31.i:                                      ; preds = %.thread.thread.i
  %25 = getelementptr inbounds nuw i8, ptr %21, i64 8
  store ptr %18, ptr %25, align 8, !tbaa !40
  br label %29

26:                                               ; preds = %.thread30.i, %.thread.i
  store ptr %20, ptr %7, align 8, !tbaa !25
  br label %29

27:                                               ; preds = %.thread.thread.i
  %28 = getelementptr inbounds nuw i8, ptr %15, i64 8
  store ptr %18, ptr %28, align 8, !tbaa !40
  br label %29

29:                                               ; preds = %27, %26, %.thread31.i
  tail call void @llvm.memset.p0.i64(ptr noundef nonnull align 8 dereferenceable(16) %.0.i, i8 0, i64 16, i1 false)
  br label %cJSON_DetachItemViaPointer.exit

cJSON_DetachItemViaPointer.exit:                  ; preds = %29, %16, %get_array_item.exit, %2
  %.0 = phi ptr [ null, %2 ], [ %.0.i, %29 ], [ null, %16 ], [ null, %get_array_item.exit ]
  ret ptr %.0
}